target datalayout = "e-m:e-p270:32:32-p271:32:32-p272:64:64-i64:64-i128:128-f80:128-n8:16:32:64-S128"
target triple = "x86_64-pc-linux-gnu"

%struct.jpeg_decompress_struct = type { ptr, ptr, ptr, ptr, i32, i32, ptr, i32, i32, i32, i32, i32, i32, i32, double, i32, i32, i32, i32, i32, i32, i32, i32, i32, i32, i32, i32, i32, i32, i32, i32, i32, i32, ptr, i32, i32, i32, i32, i32, ptr, [4 x ptr], [4 x ptr], [4 x ptr], i32, ptr, i32, i32, [16 x i8], [16 x i8], [16 x i8], i32, i32, i8, i8, i8, i16, i16, i32, i8, i32, ptr, i32, i32, i32, i32, ptr, i32, [4 x ptr], i32, i32, i32, [10 x i32], i32, i32, i32, i32, i32, ptr, ptr, ptr, ptr, ptr, ptr, ptr, ptr, ptr, ptr, ptr }
%struct.jpeg_error_mgr = type { ptr, ptr, ptr, ptr, ptr, i32, %union.anon, i32, i64, ptr, i32, ptr, i32, i32 }
%union.anon = type { [8 x i32], [48 x i8] }
%struct.gif_dest_struct = type { %struct.djpeg_dest_struct, ptr, i32, i16, i32, i32, i32, i16, i32, i16, i16, i16, i16, ptr, ptr, i32, [256 x i8] }
%struct.djpeg_dest_struct = type { ptr, ptr, ptr, ptr, ptr, ptr, ptr, ptr, i32 }

; Function Attrs: nounwind uwtable
define internal void @flush_packet(ptr noundef %0) #0 {
  %2 = alloca ptr, align 8
  store ptr %0, ptr %2, align 8, !tbaa !43
  %3 = load ptr, ptr %2, align 8, !tbaa !43
  %4 = getelementptr inbounds nuw %struct.gif_dest_struct, ptr %3, i32 0, i32 15
  %5 = load i32, ptr %4, align 8, !tbaa !88
  %6 = icmp sgt i32 %5, 0
  br i1 %6, label %7, label %53

7:                                                ; preds = %1
  %8 = load ptr, ptr %2, align 8, !tbaa !43
  %9 = getelementptr inbounds nuw %struct.gif_dest_struct, ptr %8, i32 0, i32 15
  %10 = load i32, ptr %9, align 8, !tbaa !88
  %11 = add nsw i32 %10, 1
  store i32 %11, ptr %9, align 8, !tbaa !88
  %12 = trunc i32 %10 to i8
  %13 = load ptr, ptr %2, align 8, !tbaa !43
  %14 = getelementptr inbounds nuw %struct.gif_dest_struct, ptr %13, i32 0, i32 16
  %15 = getelementptr inbounds [256 x i8], ptr %14, i64 0, i64 0
  store i8 %12, ptr %15, align 4, !tbaa !38
  %16 = load ptr, ptr %2, align 8, !tbaa !43
  %17 = getelementptr inbounds nuw %struct.gif_dest_struct, ptr %16, i32 0, i32 16
  %18 = getelementptr inbounds [256 x i8], ptr %17, i64 0, i64 0
  %19 = load ptr, ptr %2, align 8, !tbaa !43
  %20 = getelementptr inbounds nuw %struct.gif_dest_struct, ptr %19, i32 0, i32 15
  %21 = load i32, ptr %20, align 8, !tbaa !88
  %22 = sext i32 %21 to i64
  %23 = load ptr, ptr %2, align 8, !tbaa !43
  %24 = getelementptr inbounds nuw %struct.gif_dest_struct, ptr %23, i32 0, i32 0
  %25 = getelementptr inbounds nuw %struct.djpeg_dest_struct, ptr %24, i32 0, i32 4
  %26 = load ptr, ptr %25, align 8, !tbaa !69
  %27 = call i64 @fwrite(ptr noundef %18, i64 noundef 1, i64 noundef %22, ptr noundef %26)
  %28 = load ptr, ptr %2, align 8, !tbaa !43
  %29 = getelementptr inbounds nuw %struct.gif_dest_struct, ptr %28, i32 0, i32 15
  %30 = load i32, ptr %29, align 8, !tbaa !88
  %31 = sext i32 %30 to i64
  %32 = icmp ne i64 %27, %31
  br i1 %32, label %33, label %50

33:                                               ; preds = %7
  %34 = load ptr, ptr %2, align 8, !tbaa !43
  %35 = getelementptr inbounds nuw %struct.gif_dest_struct, ptr %34, i32 0, i32 1
  %36 = load ptr, ptr %35, align 8, !tbaa !44
  %37 = getelementptr inbounds nuw %struct.jpeg_decompress_struct, ptr %36, i32 0, i32 0
  %38 = load ptr, ptr %37, align 8, !tbaa !34
  %39 = getelementptr inbounds nuw %struct.jpeg_error_mgr, ptr %38, i32 0, i32 5
  store i32 37, ptr %39, align 8, !tbaa !35
  %40 = load ptr, ptr %2, align 8, !tbaa !43
  %41 = getelementptr inbounds nuw %struct.gif_dest_struct, ptr %40, i32 0, i32 1
  %42 = load ptr, ptr %41, align 8, !tbaa !44
  %43 = getelementptr inbounds nuw %struct.jpeg_decompress_struct, ptr %42, i32 0, i32 0
  %44 = load ptr, ptr %43, align 8, !tbaa !34
  %45 = getelementptr inbounds nuw %struct.jpeg_error_mgr, ptr %44, i32 0, i32 0
  %46 = load ptr, ptr %45, align 8, !tbaa !39
  %47 = load ptr, ptr %2, align 8, !tbaa !43
  %48 = getelementptr inbounds nuw %struct.gif_dest_struct, ptr %47, i32 0, i32 1
  %49 = load ptr, ptr %48, align 8, !tbaa !44
  call void %46(ptr noundef %49)
  br label %50

50:                                               ; preds = %33, %7
  %51 = load ptr, ptr %2, align 8, !tbaa !43
  %52 = getelementptr inbounds nuw %struct.gif_dest_struct, ptr %51, i32 0, i32 15
  store i32 0, ptr %52, align 8, !tbaa !88
  br label %53

53:                                               ; preds = %50, %1
  ret void
}

; Function Attrs: nounwind uwtable
define internal void @output(ptr noundef %0, i16 noundef signext %1) #0 {
  %3 = alloca ptr, align 8
  %4 = alloca i16, align 2
  store ptr %0, ptr %3, align 8, !tbaa !43
  store i16 %1, ptr %4, align 2, !tbaa !71
  %5 = load i16, ptr %4, align 2, !tbaa !71
  %6 = sext i16 %5 to i64
  %7 = load ptr, ptr %3, align 8, !tbaa !43
  %8 = getelementptr inbounds nuw %struct.gif_dest_struct, ptr %7, i32 0, i32 6
  %9 = load i32, ptr %8, align 8, !tbaa !90
  %10 = zext i32 %9 to i64
  %11 = shl i64 %6, %10
  %12 = load ptr, ptr %3, align 8, !tbaa !43
  %13 = getelementptr inbounds nuw %struct.gif_dest_struct, ptr %12, i32 0, i32 5
  %14 = load i32, ptr %13, align 4, !tbaa !89
  %15 = sext i32 %14 to i64
  %16 = or i64 %15, %11
  %17 = trunc i64 %16 to i32
  store i32 %17, ptr %13, align 4, !tbaa !89
  %18 = load ptr, ptr %3, align 8, !tbaa !43
  %19 = getelementptr inbounds nuw %struct.gif_dest_struct, ptr %18, i32 0, i32 2
  %20 = load i32, ptr %19, align 8, !tbaa !86
  %21 = load ptr, ptr %3, align 8, !tbaa !43
  %22 = getelementptr inbounds nuw %struct.gif_dest_struct, ptr %21, i32 0, i32 6
  %23 = load i32, ptr %22, align 8, !tbaa !90
  %24 = add nsw i32 %23, %20
  store i32 %24, ptr %22, align 8, !tbaa !90
  br label %25

25:                                               ; preds = %50, %2
  %26 = load ptr, ptr %3, align 8, !tbaa !43
  %27 = getelementptr inbounds nuw %struct.gif_dest_struct, ptr %26, i32 0, i32 6
  %28 = load i32, ptr %27, align 8, !tbaa !90
  %29 = icmp sge i32 %28, 8
  br i1 %29, label %30, label %59

30:                                               ; preds = %25
  %31 = load ptr, ptr %3, align 8, !tbaa !43
  %32 = getelementptr inbounds nuw %struct.gif_dest_struct, ptr %31, i32 0, i32 5
  %33 = load i32, ptr %32, align 4, !tbaa !89
  %34 = and i32 %33, 255
  %35 = trunc i32 %34 to i8
  %36 = load ptr, ptr %3, align 8, !tbaa !43
  %37 = getelementptr inbounds nuw %struct.gif_dest_struct, ptr %36, i32 0, i32 16
  %38 = load ptr, ptr %3, align 8, !tbaa !43
  %39 = getelementptr inbounds nuw %struct.gif_dest_struct, ptr %38, i32 0, i32 15
  %40 = load i32, ptr %39, align 8, !tbaa !88
  %41 = add nsw i32 %40, 1
  store i32 %41, ptr %39, align 8, !tbaa !88
  %42 = sext i32 %41 to i64
  %43 = getelementptr inbounds [256 x i8], ptr %37, i64 0, i64 %42
  store i8 %35, ptr %43, align 1, !tbaa !38
  %44 = load ptr, ptr %3, align 8, !tbaa !43
  %45 = getelementptr inbounds nuw %struct.gif_dest_struct, ptr %44, i32 0, i32 15
  %46 = load i32, ptr %45, align 8, !tbaa !88
  %47 = icmp sge i32 %46, 255
  br i1 %47, label %48, label %50

48:                                               ; preds = %30
  %49 = load ptr, ptr %3, align 8, !tbaa !43
  call void @flush_packet(ptr noundef %49)
  br label %50

50:                                               ; preds = %48, %30
  %51 = load ptr, ptr %3, align 8, !tbaa !43
  %52 = getelementptr inbounds nuw %struct.gif_dest_struct, ptr %51, i32 0, i32 5
  %53 = load i32, ptr %52, align 4, !tbaa !89
  %54 = ashr i32 %53, 8
  store i32 %54, ptr %52, align 4, !tbaa !89
  %55 = load ptr, ptr %3, align 8, !tbaa !43
  %56 = getelementptr inbounds nuw %struct.gif_dest_struct, ptr %55, i32 0, i32 6
  %57 = load i32, ptr %56, align 8, !tbaa !90
  %58 = sub nsw i32 %57, 8
  store i32 %58, ptr %56, align 8, !tbaa !90
  br label %25, !llvm.loop !91

59:                                               ; preds = %25
  %60 = load ptr, ptr %3, align 8, !tbaa !43
  %61 = getelementptr inbounds nuw %struct.gif_dest_struct, ptr %60, i32 0, i32 11
  %62 = load i16, ptr %61, align 8, !tbaa !74
  %63 = sext i16 %62 to i32
  %64 = load ptr, ptr %3, align 8, !tbaa !43
  %65 = getelementptr inbounds nuw %struct.gif_dest_struct, ptr %64, i32 0, i32 3
  %66 = load i16, ptr %65, align 4, !tbaa !78
  %67 = sext i16 %66 to i32
  %68 = icmp sgt i32 %63, %67
  br i1 %68, label %69, label %91

69:                                               ; preds = %59
  %70 = load ptr, ptr %3, align 8, !tbaa !43
  %71 = getelementptr inbounds nuw %struct.gif_dest_struct, ptr %70, i32 0, i32 2
  %72 = load i32, ptr %71, align 8, !tbaa !86
  %73 = add nsw i32 %72, 1
  store i32 %73, ptr %71, align 8, !tbaa !86
  %74 = load ptr, ptr %3, align 8, !tbaa !43
  %75 = getelementptr inbounds nuw %struct.gif_dest_struct, ptr %74, i32 0, i32 2
  %76 = load i32, ptr %75, align 8, !tbaa !86
  %77 = icmp eq i32 %76, 12
  br i1 %77, label %78, label %81

78:                                               ; preds = %69
  %79 = load ptr, ptr %3, align 8, !tbaa !43
  %80 = getelementptr inbounds nuw %struct.gif_dest_struct, ptr %79, i32 0, i32 3
  store i16 4096, ptr %80, align 4, !tbaa !78
  br label %90

81:                                               ; preds = %69
  %82 = load ptr, ptr %3, align 8, !tbaa !43
  %83 = getelementptr inbounds nuw %struct.gif_dest_struct, ptr %82, i32 0, i32 2
  %84 = load i32, ptr %83, align 8, !tbaa !86
  %85 = shl i32 1, %84
  %86 = sub nsw i32 %85, 1
  %87 = trunc i32 %86 to i16
  %88 = load ptr, ptr %3, align 8, !tbaa !43
  %89 = getelementptr inbounds nuw %struct.gif_dest_struct, ptr %88, i32 0, i32 3
  store i16 %87, ptr %89, align 4, !tbaa !78
  br label %90

90:                                               ; preds = %81, %78
  br label %91

91:                                               ; preds = %90, %59
  ret void
}