; Function Attrs: nounwind uwtable
define internal fastcc void @output(ptr noundef captures(none) %0, i16 noundef signext %1) unnamed_addr #0 {
  %3 = sext i16 %1 to i64
  %4 = getelementptr inbounds nuw i8, ptr %0, i64 96
  %5 = load i32, ptr %4, align 8, !tbaa !67
  %6 = zext nneg i32 %5 to i64
  %7 = shl i64 %3, %6
  %8 = getelementptr inbounds nuw i8, ptr %0, i64 92
  %9 = load i32, ptr %8, align 4, !tbaa !69
  %10 = trunc i64 %7 to i32
  %11 = or i32 %9, %10
  store i32 %11, ptr %8, align 4, !tbaa !69
  %12 = getelementptr inbounds nuw i8, ptr %0, i64 80
  %13 = load i32, ptr %12, align 8, !tbaa !77
  %14 = add nsw i32 %13, %5
  store i32 %14, ptr %4, align 8, !tbaa !67
  %15 = icmp sgt i32 %14, 7
  br i1 %15, label %.lr.ph, label %._crit_edge

.lr.ph:                                           ; preds = %2
  %16 = getelementptr inbounds nuw i8, ptr %0, i64 140
  %17 = getelementptr inbounds nuw i8, ptr %0, i64 136
  %18 = getelementptr inbounds nuw i8, ptr %0, i64 32
  %19 = getelementptr inbounds nuw i8, ptr %0, i64 72
  %.pre = load i32, ptr %17, align 8, !tbaa !68
  br label %20

20:                                               ; preds = %.lr.ph, %42
  %21 = phi i32 [ %.pre, %.lr.ph ], [ %43, %42 ]
  %22 = phi i32 [ %11, %.lr.ph ], [ %45, %42 ]
  %23 = trunc i32 %22 to i8
  %24 = add nsw i32 %21, 1
  store i32 %24, ptr %17, align 8, !tbaa !68
  %25 = sext i32 %24 to i64
  %26 = getelementptr inbounds [256 x i8], ptr %16, i64 0, i64 %25
  store i8 %23, ptr %26, align 1, !tbaa !35
  %27 = load i32, ptr %17, align 8, !tbaa !68
  %28 = icmp sgt i32 %27, 254
  br i1 %28, label %29, label %42

29:                                               ; preds = %20
  %30 = add nuw nsw i32 %27, 1
  store i32 %30, ptr %17, align 8, !tbaa !68
  %31 = trunc i32 %27 to i8
  store i8 %31, ptr %16, align 4, !tbaa !35
  %32 = zext nneg i32 %30 to i64
  %33 = load ptr, ptr %18, align 8, !tbaa !70
  %34 = tail call i64 @fwrite(ptr noundef nonnull %16, i64 noundef 1, i64 noundef %32, ptr noundef %33)
  %35 = load i32, ptr %17, align 8, !tbaa !68
  %36 = sext i32 %35 to i64
  %.not.i = icmp eq i64 %34, %36
  br i1 %.not.i, label %flush_packet.exit, label %37

37:                                               ; preds = %29
  %38 = load ptr, ptr %19, align 8, !tbaa !40
  %39 = load ptr, ptr %38, align 8, !tbaa !31
  %40 = getelementptr inbounds nuw i8, ptr %39, i64 40
  store i32 37, ptr %40, align 8, !tbaa !32
  %41 = load ptr, ptr %39, align 8, !tbaa !36
  tail call void %41(ptr noundef nonnull %38) #7
  br label %flush_packet.exit

flush_packet.exit:                                ; preds = %29, %37
  store i32 0, ptr %17, align 8, !tbaa !68
  br label %42

42:                                               ; preds = %flush_packet.exit, %20
  %43 = phi i32 [ 0, %flush_packet.exit ], [ %27, %20 ]
  %44 = load i32, ptr %8, align 4, !tbaa !69
  %45 = ashr i32 %44, 8
  store i32 %45, ptr %8, align 4, !tbaa !69
  %46 = load i32, ptr %4, align 8, !tbaa !67
  %47 = add nsw i32 %46, -8
  store i32 %47, ptr %4, align 8, !tbaa !67
  %48 = icmp sgt i32 %46, 15
  br i1 %48, label %20, label %._crit_edge, !llvm.loop !86

._crit_edge:                                      ; preds = %42, %2
  %49 = getelementptr inbounds nuw i8, ptr %0, i64 112
  %50 = load i16, ptr %49, align 8, !tbaa !73
  %51 = getelementptr inbounds nuw i8, ptr %0, i64 84
  %52 = load i16, ptr %51, align 4, !tbaa !78
  %53 = icmp sgt i16 %50, %52
  br i1 %53, label %.sink.split, label %59

.sink.split:                                      ; preds = %._crit_edge
  %54 = load i32, ptr %12, align 8, !tbaa !77
  %55 = add nsw i32 %54, 1
  store i32 %55, ptr %12, align 8, !tbaa !77
  %56 = icmp eq i32 %55, 12
  %notmask = shl nsw i32 -1, %55
  %57 = trunc i32 %notmask to i16
  %58 = xor i16 %57, -1
  %.sink = select i1 %56, i16 4096, i16 %58
  store i16 %.sink, ptr %51, align 4, !tbaa !78
  br label %59

59:                                               ; preds = %.sink.split, %._crit_edge
  ret void
}